target datalayout = "e-m:e-p270:32:32-p271:32:32-p272:64:64-i64:64-i128:128-f80:128-n8:16:32:64-S128"
target triple = "x86_64-pc-linux-gnu"

%struct.ssl_cipher_st = type { i32, ptr, ptr, i32, i32, i32, i32, i32, i32, i32, i32, i32, i32, i32, i32, i32 }

@__const.ssl3_get_cipher_by_std_name.alltabs = private unnamed_addr constant [3 x ptr] [ptr @tls13_ciphers, ptr @ssl3_ciphers, ptr @ssl3_scsvs], align 16
@__const.ssl3_get_cipher_by_std_name.tblsize = private unnamed_addr constant [3 x i64] [i64 7, i64 167, i64 2], align 16

; Function Attrs: nounwind uwtable
define ptr @ssl3_get_cipher_by_std_name(ptr noundef %0) #0 {
  %2 = alloca ptr, align 8
  %3 = alloca ptr, align 8
  %4 = alloca ptr, align 8
  %5 = alloca [3 x ptr], align 16
  %6 = alloca i64, align 8
  %7 = alloca i64, align 8
  %8 = alloca [3 x i64], align 16
  %9 = alloca i32, align 4
  store ptr %0, ptr %3, align 8, !tbaa !15
  call void @llvm.lifetime.start.p0(i64 8, ptr %4) #10
  call void @llvm.lifetime.start.p0(i64 24, ptr %5) #10
  call void @llvm.memcpy.p0.p0.i64(ptr align 16 %5, ptr align 16 @__const.ssl3_get_cipher_by_std_name.alltabs, i64 24, i1 false)
  call void @llvm.lifetime.start.p0(i64 8, ptr %6) #10
  call void @llvm.lifetime.start.p0(i64 8, ptr %7) #10
  call void @llvm.lifetime.start.p0(i64 24, ptr %8) #10
  call void @llvm.memcpy.p0.p0.i64(ptr align 16 %8, ptr align 16 @__const.ssl3_get_cipher_by_std_name.tblsize, i64 24, i1 false)
  store i64 0, ptr %7, align 8, !tbaa !16
  br label %10

10:                                               ; preds = %45, %1
  %11 = load i64, ptr %7, align 8, !tbaa !16
  %12 = icmp ult i64 %11, 3
  br i1 %12, label %13, label %48

13:                                               ; preds = %10
  store i64 0, ptr %6, align 8, !tbaa !16
  %14 = load i64, ptr %7, align 8, !tbaa !16
  %15 = getelementptr inbounds nuw [3 x ptr], ptr %5, i64 0, i64 %14
  %16 = load ptr, ptr %15, align 8, !tbaa !7
  store ptr %16, ptr %4, align 8, !tbaa !7
  br label %17

17:                                               ; preds = %39, %13
  %18 = load i64, ptr %6, align 8, !tbaa !16
  %19 = load i64, ptr %7, align 8, !tbaa !16
  %20 = getelementptr inbounds nuw [3 x i64], ptr %8, i64 0, i64 %19
  %21 = load i64, ptr %20, align 8, !tbaa !16
  %22 = icmp ult i64 %18, %21
  br i1 %22, label %23, label %44

23:                                               ; preds = %17
  %24 = load ptr, ptr %4, align 8, !tbaa !7
  %25 = getelementptr inbounds nuw %struct.ssl_cipher_st, ptr %24, i32 0, i32 2
  %26 = load ptr, ptr %25, align 8, !tbaa !214
  %27 = icmp eq ptr %26, null
  br i1 %27, label %28, label %29

28:                                               ; preds = %23
  br label %39

29:                                               ; preds = %23
  %30 = load ptr, ptr %3, align 8, !tbaa !15
  %31 = load ptr, ptr %4, align 8, !tbaa !7
  %32 = getelementptr inbounds nuw %struct.ssl_cipher_st, ptr %31, i32 0, i32 2
  %33 = load ptr, ptr %32, align 8, !tbaa !214
  %34 = call i32 @strcmp(ptr noundef %30, ptr noundef %33) #11
  %35 = icmp eq i32 %34, 0
  br i1 %35, label %36, label %38

36:                                               ; preds = %29
  %37 = load ptr, ptr %4, align 8, !tbaa !7
  store ptr %37, ptr %2, align 8
  store i32 1, ptr %9, align 4
  br label %49

38:                                               ; preds = %29
  br label %39

39:                                               ; preds = %38, %28
  %40 = load i64, ptr %6, align 8, !tbaa !16
  %41 = add i64 %40, 1
  store i64 %41, ptr %6, align 8, !tbaa !16
  %42 = load ptr, ptr %4, align 8, !tbaa !7
  %43 = getelementptr inbounds nuw %struct.ssl_cipher_st, ptr %42, i32 1
  store ptr %43, ptr %4, align 8, !tbaa !7
  br label %17, !llvm.loop !215

44:                                               ; preds = %17
  br label %45

45:                                               ; preds = %44
  %46 = load i64, ptr %7, align 8, !tbaa !16
  %47 = add i64 %46, 1
  store i64 %47, ptr %7, align 8, !tbaa !16
  br label %10, !llvm.loop !216

48:                                               ; preds = %10
  store ptr null, ptr %2, align 8
  store i32 1, ptr %9, align 4
  br label %49

49:                                               ; preds = %48, %36
  call void @llvm.lifetime.end.p0(i64 24, ptr %8) #10
  call void @llvm.lifetime.end.p0(i64 8, ptr %7) #10
  call void @llvm.lifetime.end.p0(i64 8, ptr %6) #10
  call void @llvm.lifetime.end.p0(i64 24, ptr %5) #10
  call void @llvm.lifetime.end.p0(i64 8, ptr %4) #10
  %50 = load ptr, ptr %2, align 8
  ret ptr %50
}