; Function Attrs: nofree nounwind memory(read, inaccessiblemem: none) uwtable
define ptr @ssl3_get_cipher_by_std_name(ptr noundef readonly captures(none) %0) local_unnamed_addr #12 {
  br label %.lr.ph.preheader

.lr.ph.preheader:                                 ; preds = %._crit_edge, %1
  %.019 = phi i64 [ 0, %1 ], [ %15, %._crit_edge ]
  %2 = getelementptr inbounds nuw [3 x i64], ptr @__const.ssl3_get_cipher_by_std_name.tblsize, i64 0, i64 %.019
  %3 = load i64, ptr %2, align 8, !tbaa !198
  %4 = getelementptr inbounds nuw [3 x ptr], ptr @__const.ssl3_get_cipher_by_std_name.alltabs, i64 0, i64 %.019
  %5 = load ptr, ptr %4, align 8, !tbaa !199
  %umax = tail call i64 @llvm.umax.i64(i64 %3, i64 1)
  br label %.lr.ph

.lr.ph:                                           ; preds = %.lr.ph.preheader, %12
  %.01118 = phi i64 [ %13, %12 ], [ 0, %.lr.ph.preheader ]
  %.01217 = phi ptr [ %14, %12 ], [ %5, %.lr.ph.preheader ]
  %6 = getelementptr inbounds nuw i8, ptr %.01217, i64 16
  %7 = load ptr, ptr %6, align 8, !tbaa !200
  %8 = icmp eq ptr %7, null
  br i1 %8, label %12, label %9

9:                                                ; preds = %.lr.ph
  %10 = tail call i32 @strcmp(ptr noundef nonnull dereferenceable(1) %0, ptr noundef nonnull dereferenceable(1) %7) #19
  %11 = icmp eq i32 %10, 0
  br i1 %11, label %.loopexit, label %12

12:                                               ; preds = %9, %.lr.ph
  %13 = add nuw i64 %.01118, 1
  %14 = getelementptr inbounds nuw i8, ptr %.01217, i64 80
  %exitcond.not = icmp eq i64 %13, %umax
  br i1 %exitcond.not, label %._crit_edge, label %.lr.ph, !llvm.loop !201

._crit_edge:                                      ; preds = %12
  %15 = add nuw nsw i64 %.019, 1
  %exitcond22.not = icmp eq i64 %15, 3
  br i1 %exitcond22.not, label %.loopexit, label %.lr.ph.preheader, !llvm.loop !202

.loopexit:                                        ; preds = %._crit_edge, %9
  %.013 = phi ptr [ %.01217, %9 ], [ null, %._crit_edge ]
  ret ptr %.013
}